target datalayout = "e-m:e-p270:32:32-p271:32:32-p272:64:64-i64:64-i128:128-f80:128-n8:16:32:64-S128"
target triple = "x86_64-pc-linux-gnu"

%struct.H5O_layout_t = type { i32, i32, ptr, %union.anon.1, %struct.H5O_storage_t }
%union.anon.1 = type { %struct.H5O_layout_chunk_t }
%struct.H5O_layout_chunk_t = type { i32, i8, i32, [33 x i32], i32, i32, i64, i64, [33 x i64], [33 x i64], [33 x i64], [33 x i64], %union.anon.2 }
%union.anon.2 = type { %struct.H5O_layout_chunk_earray_t }
%struct.H5O_layout_chunk_earray_t = type { %struct.anon.3, i32, [33 x i32], [33 x i64], [33 x i64] }
%struct.anon.3 = type { i8, i8, i8, i8, i8 }
%struct.H5O_storage_t = type { i32, %union.anon.5 }
%union.anon.5 = type { %struct.H5O_storage_virtual_t }
%struct.H5O_storage_virtual_t = type { %struct.H5HG_t, i64, ptr, i64, [32 x i64], i32, i64, i64, i64, i8 }
%struct.H5HG_t = type { i64, i64 }
%struct.H5O_storage_contig_t = type { i64, i64 }

@H5D_init_g = external global i8, align 1
@H5_libterm_g = external global i8, align 1
@.str.1 = private unnamed_addr constant [103 x i8] c"generated/home/dtcxzyw/WorkSpace/Projects/compilers/llvm-opt-benchmark/bench/hdf5/hdf5/src/H5Dcontig.c\00", align 1
@H5E_DATASET_g = external global i64, align 8
@H5E_CANTGET_g = external global i64, align 8
@__func__.H5D__contig_check = private unnamed_addr constant [18 x i8] c"H5D__contig_check\00", align 1
@.str.10 = private unnamed_addr constant [36 x i8] c"unable to retrieve size of datatype\00", align 1
@H5E_OVERFLOW_g = external global i64, align 8
@.str.11 = private unnamed_addr constant [37 x i8] c"size of dataset's storage overflowed\00", align 1
@.str.12 = private unnamed_addr constant [30 x i8] c"unable to determine file size\00", align 1
@.str.13 = private unnamed_addr constant [45 x i8] c"invalid dataset size, likely file corruption\00", align 1

; Function Attrs: nounwind uwtable
define i32 @H5D__contig_check(ptr noundef %0, ptr noundef %1, ptr noundef %2, ptr noundef %3) #0 {
  %5 = alloca i32, align 4
  %6 = alloca ptr, align 8
  %7 = alloca ptr, align 8
  %8 = alloca ptr, align 8
  %9 = alloca ptr, align 8
  %10 = alloca i64, align 8
  %11 = alloca i64, align 8
  %12 = alloca i64, align 8
  %13 = alloca i32, align 4
  %14 = alloca i8, align 1
  %15 = alloca i64, align 8
  %16 = alloca i32, align 4
  store ptr %0, ptr %6, align 8, !tbaa !3
  store ptr %1, ptr %7, align 8, !tbaa !158
  store ptr %2, ptr %8, align 8, !tbaa !159
  store ptr %3, ptr %9, align 8, !tbaa !161
  call void @llvm.lifetime.start.p0(i64 8, ptr %10) #6
  call void @llvm.lifetime.start.p0(i64 8, ptr %11) #6
  call void @llvm.lifetime.start.p0(i64 8, ptr %12) #6
  call void @llvm.lifetime.start.p0(i64 4, ptr %13) #6
  store i32 0, ptr %13, align 4, !tbaa !10
  call void @llvm.lifetime.start.p0(i64 1, ptr %14) #6
  store i8 0, ptr %14, align 1, !tbaa !12
  %17 = load i8, ptr @H5D_init_g, align 1, !tbaa !12, !range !14, !noundef !15
  %18 = trunc i8 %17 to i1
  br i1 %18, label %23, label %19

19:                                               ; preds = %4
  %20 = load i8, ptr @H5_libterm_g, align 1, !tbaa !12, !range !14, !noundef !15
  %21 = trunc i8 %20 to i1
  %22 = xor i1 %21, true
  br label %23

23:                                               ; preds = %19, %4
  %24 = phi i1 [ true, %4 ], [ %22, %19 ]
  %25 = xor i1 %24, true
  %26 = xor i1 %25, true
  %27 = zext i1 %26 to i32
  %28 = sext i32 %27 to i64
  %29 = call i64 @llvm.expect.i64(i64 %28, i64 1)
  %30 = icmp ne i64 %29, 0
  br i1 %30, label %31, label %210

31:                                               ; preds = %23
  %32 = load ptr, ptr %8, align 8, !tbaa !159
  %33 = call i64 @H5S_extent_nelem(ptr noundef %32)
  store i64 %33, ptr %10, align 8, !tbaa !49
  %34 = load ptr, ptr %9, align 8, !tbaa !161
  %35 = call i64 @H5T_get_size(ptr noundef %34)
  store i64 %35, ptr %11, align 8, !tbaa !49
  %36 = icmp eq i64 0, %35
  br i1 %36, label %37, label %56

37:                                               ; preds = %31
  br label %38

38:                                               ; preds = %37
  br label %39

39:                                               ; preds = %38
  br label %40

40:                                               ; preds = %39
  %41 = load i64, ptr @H5E_DATASET_g, align 8, !tbaa !49
  %42 = load i64, ptr @H5E_CANTGET_g, align 8, !tbaa !49
  %43 = call i32 (ptr, ptr, i32, i64, i64, ptr, ...) @H5E_printf_stack(ptr noundef @.str.1, ptr noundef @__func__.H5D__contig_check, i32 noundef 389, i64 noundef %41, i64 noundef %42, ptr noundef @.str.10)
  br label %44

44:                                               ; preds = %40
  br label %45

45:                                               ; preds = %44
  store i8 1, ptr %14, align 1, !tbaa !12
  %46 = load i8, ptr %14, align 1, !tbaa !12, !range !14, !noundef !15
  %47 = trunc i8 %46 to i1
  %48 = zext i1 %47 to i8
  store i8 %48, ptr %14, align 1, !tbaa !12
  br label %49

49:                                               ; preds = %45
  br label %50

50:                                               ; preds = %49
  br label %51

51:                                               ; preds = %50
  store i32 -1, ptr %13, align 4, !tbaa !10
  br label %209

52:                                               ; No predecessors!
  br label %53

53:                                               ; preds = %52
  br label %54

54:                                               ; preds = %53
  br label %55

55:                                               ; preds = %54
  br label %56

56:                                               ; preds = %55, %31
  %57 = load i64, ptr %10, align 8, !tbaa !49
  %58 = load i64, ptr %11, align 8, !tbaa !49
  %59 = mul i64 %57, %58
  store i64 %59, ptr %12, align 8, !tbaa !49
  %60 = load i64, ptr %10, align 8, !tbaa !49
  %61 = load i64, ptr %12, align 8, !tbaa !49
  %62 = load i64, ptr %11, align 8, !tbaa !49
  %63 = udiv i64 %61, %62
  %64 = icmp ne i64 %60, %63
  br i1 %64, label %65, label %84

65:                                               ; preds = %56
  br label %66

66:                                               ; preds = %65
  br label %67

67:                                               ; preds = %66
  br label %68

68:                                               ; preds = %67
  %69 = load i64, ptr @H5E_DATASET_g, align 8, !tbaa !49
  %70 = load i64, ptr @H5E_OVERFLOW_g, align 8, !tbaa !49
  %71 = call i32 (ptr, ptr, i32, i64, i64, ptr, ...) @H5E_printf_stack(ptr noundef @.str.1, ptr noundef @__func__.H5D__contig_check, i32 noundef 396, i64 noundef %69, i64 noundef %70, ptr noundef @.str.11)
  br label %72

72:                                               ; preds = %68
  br label %73

73:                                               ; preds = %72
  store i8 1, ptr %14, align 1, !tbaa !12
  %74 = load i8, ptr %14, align 1, !tbaa !12, !range !14, !noundef !15
  %75 = trunc i8 %74 to i1
  %76 = zext i1 %75 to i8
  store i8 %76, ptr %14, align 1, !tbaa !12
  br label %77

77:                                               ; preds = %73
  br label %78

78:                                               ; preds = %77
  br label %79

79:                                               ; preds = %78
  store i32 -1, ptr %13, align 4, !tbaa !10
  br label %209

80:                                               ; No predecessors!
  br label %81

81:                                               ; preds = %80
  br label %82

82:                                               ; preds = %81
  br label %83

83:                                               ; preds = %82
  br label %84

84:                                               ; preds = %83, %56
  %85 = load ptr, ptr %7, align 8, !tbaa !158
  %86 = getelementptr inbounds nuw %struct.H5O_layout_t, ptr %85, i32 0, i32 4
  %87 = getelementptr inbounds nuw %struct.H5O_storage_t, ptr %86, i32 0, i32 1
  %88 = getelementptr inbounds nuw %struct.H5O_storage_contig_t, ptr %87, i32 0, i32 0
  %89 = load i64, ptr %88, align 8, !tbaa !54
  %90 = icmp ne i64 %89, -1
  br i1 %90, label %91, label %208

91:                                               ; preds = %84
  call void @llvm.lifetime.start.p0(i64 8, ptr %15) #6
  %92 = load ptr, ptr %6, align 8, !tbaa !3
  %93 = call i64 @H5F_get_eoa(ptr noundef %92, i32 noundef 3)
  store i64 %93, ptr %15, align 8, !tbaa !49
  %94 = icmp eq i64 -1, %93
  br i1 %94, label %95, label %114

95:                                               ; preds = %91
  br label %96

96:                                               ; preds = %95
  br label %97

97:                                               ; preds = %96
  br label %98

98:                                               ; preds = %97
  %99 = load i64, ptr @H5E_DATASET_g, align 8, !tbaa !49
  %100 = load i64, ptr @H5E_CANTGET_g, align 8, !tbaa !49
  %101 = call i32 (ptr, ptr, i32, i64, i64, ptr, ...) @H5E_printf_stack(ptr noundef @.str.1, ptr noundef @__func__.H5D__contig_check, i32 noundef 403, i64 noundef %99, i64 noundef %100, ptr noundef @.str.12)
  br label %102

102:                                              ; preds = %98
  br label %103

103:                                              ; preds = %102
  store i8 1, ptr %14, align 1, !tbaa !12
  %104 = load i8, ptr %14, align 1, !tbaa !12, !range !14, !noundef !15
  %105 = trunc i8 %104 to i1
  %106 = zext i1 %105 to i8
  store i8 %106, ptr %14, align 1, !tbaa !12
  br label %107

107:                                              ; preds = %103
  br label %108

108:                                              ; preds = %107
  br label %109

109:                                              ; preds = %108
  store i32 -1, ptr %13, align 4, !tbaa !10
  store i32 10, ptr %16, align 4
  br label %205

110:                                              ; No predecessors!
  br label %111

111:                                              ; preds = %110
  br label %112

112:                                              ; preds = %111
  br label %113

113:                                              ; preds = %112
  br label %114

114:                                              ; preds = %113, %91
  %115 = load ptr, ptr %7, align 8, !tbaa !158
  %116 = getelementptr inbounds nuw %struct.H5O_layout_t, ptr %115, i32 0, i32 4
  %117 = getelementptr inbounds nuw %struct.H5O_storage_t, ptr %116, i32 0, i32 1
  %118 = getelementptr inbounds nuw %struct.H5O_storage_contig_t, ptr %117, i32 0, i32 0
  %119 = load i64, ptr %118, align 8, !tbaa !54
  %120 = load i64, ptr %12, align 8, !tbaa !49
  %121 = add i64 %119, %120
  %122 = icmp ne i64 %121, -1
  br i1 %122, label %123, label %163

123:                                              ; preds = %114
  %124 = load ptr, ptr %7, align 8, !tbaa !158
  %125 = getelementptr inbounds nuw %struct.H5O_layout_t, ptr %124, i32 0, i32 4
  %126 = getelementptr inbounds nuw %struct.H5O_storage_t, ptr %125, i32 0, i32 1
  %127 = getelementptr inbounds nuw %struct.H5O_storage_contig_t, ptr %126, i32 0, i32 0
  %128 = load i64, ptr %127, align 8, !tbaa !54
  %129 = icmp ne i64 %128, -1
  br i1 %129, label %130, label %163

130:                                              ; preds = %123
  %131 = load ptr, ptr %7, align 8, !tbaa !158
  %132 = getelementptr inbounds nuw %struct.H5O_layout_t, ptr %131, i32 0, i32 4
  %133 = getelementptr inbounds nuw %struct.H5O_storage_t, ptr %132, i32 0, i32 1
  %134 = getelementptr inbounds nuw %struct.H5O_storage_contig_t, ptr %133, i32 0, i32 0
  %135 = load i64, ptr %134, align 8, !tbaa !54
  %136 = load i64, ptr %12, align 8, !tbaa !49
  %137 = add i64 %135, %136
  %138 = load ptr, ptr %7, align 8, !tbaa !158
  %139 = getelementptr inbounds nuw %struct.H5O_layout_t, ptr %138, i32 0, i32 4
  %140 = getelementptr inbounds nuw %struct.H5O_storage_t, ptr %139, i32 0, i32 1
  %141 = getelementptr inbounds nuw %struct.H5O_storage_contig_t, ptr %140, i32 0, i32 0
  %142 = load i64, ptr %141, align 8, !tbaa !54
  %143 = icmp ule i64 %137, %142
  br i1 %143, label %144, label %163

144:                                              ; preds = %130
  br label %145

145:                                              ; preds = %144
  br label %146

146:                                              ; preds = %145
  br label %147

147:                                              ; preds = %146
  %148 = load i64, ptr @H5E_DATASET_g, align 8, !tbaa !49
  %149 = load i64, ptr @H5E_OVERFLOW_g, align 8, !tbaa !49
  %150 = call i32 (ptr, ptr, i32, i64, i64, ptr, ...) @H5E_printf_stack(ptr noundef @.str.1, ptr noundef @__func__.H5D__contig_check, i32 noundef 409, i64 noundef %148, i64 noundef %149, ptr noundef @.str.13)
  br label %151

151:                                              ; preds = %147
  br label %152

152:                                              ; preds = %151
  store i8 1, ptr %14, align 1, !tbaa !12
  %153 = load i8, ptr %14, align 1, !tbaa !12, !range !14, !noundef !15
  %154 = trunc i8 %153 to i1
  %155 = zext i1 %154 to i8
  store i8 %155, ptr %14, align 1, !tbaa !12
  br label %156

156:                                              ; preds = %152
  br label %157

157:                                              ; preds = %156
  br label %158

158:                                              ; preds = %157
  store i32 -1, ptr %13, align 4, !tbaa !10
  store i32 10, ptr %16, align 4
  br label %205

159:                                              ; No predecessors!
  br label %160

160:                                              ; preds = %159
  br label %161

161:                                              ; preds = %160
  br label %162

162:                                              ; preds = %161
  br label %163

163:                                              ; preds = %162, %130, %123, %114
  %164 = load ptr, ptr %7, align 8, !tbaa !158
  %165 = getelementptr inbounds nuw %struct.H5O_layout_t, ptr %164, i32 0, i32 4
  %166 = getelementptr inbounds nuw %struct.H5O_storage_t, ptr %165, i32 0, i32 1
  %167 = getelementptr inbounds nuw %struct.H5O_storage_contig_t, ptr %166, i32 0, i32 0
  %168 = load i64, ptr %167, align 8, !tbaa !54
  %169 = load i64, ptr %12, align 8, !tbaa !49
  %170 = add i64 %168, %169
  %171 = icmp ne i64 %170, -1
  br i1 %171, label %172, label %204

172:                                              ; preds = %163
  %173 = load i64, ptr %15, align 8, !tbaa !49
  %174 = icmp ne i64 %173, -1
  br i1 %174, label %175, label %204

175:                                              ; preds = %172
  %176 = load ptr, ptr %7, align 8, !tbaa !158
  %177 = getelementptr inbounds nuw %struct.H5O_layout_t, ptr %176, i32 0, i32 4
  %178 = getelementptr inbounds nuw %struct.H5O_storage_t, ptr %177, i32 0, i32 1
  %179 = getelementptr inbounds nuw %struct.H5O_storage_contig_t, ptr %178, i32 0, i32 0
  %180 = load i64, ptr %179, align 8, !tbaa !54
  %181 = load i64, ptr %12, align 8, !tbaa !49
  %182 = add i64 %180, %181
  %183 = load i64, ptr %15, align 8, !tbaa !49
  %184 = icmp ugt i64 %182, %183
  br i1 %184, label %185, label %204

185:                                              ; preds = %175
  br label %186

186:                                              ; preds = %185
  br label %187

187:                                              ; preds = %186
  br label %188

188:                                              ; preds = %187
  %189 = load i64, ptr @H5E_DATASET_g, align 8, !tbaa !49
  %190 = load i64, ptr @H5E_OVERFLOW_g, align 8, !tbaa !49
  %191 = call i32 (ptr, ptr, i32, i64, i64, ptr, ...) @H5E_printf_stack(ptr noundef @.str.1, ptr noundef @__func__.H5D__contig_check, i32 noundef 411, i64 noundef %189, i64 noundef %190, ptr noundef @.str.13)
  br label %192

192:                                              ; preds = %188
  br label %193

193:                                              ; preds = %192
  store i8 1, ptr %14, align 1, !tbaa !12
  %194 = load i8, ptr %14, align 1, !tbaa !12, !range !14, !noundef !15
  %195 = trunc i8 %194 to i1
  %196 = zext i1 %195 to i8
  store i8 %196, ptr %14, align 1, !tbaa !12
  br label %197

197:                                              ; preds = %193
  br label %198

198:                                              ; preds = %197
  br label %199

199:                                              ; preds = %198
  store i32 -1, ptr %13, align 4, !tbaa !10
  store i32 10, ptr %16, align 4
  br label %205

200:                                              ; No predecessors!
  br label %201

201:                                              ; preds = %200
  br label %202

202:                                              ; preds = %201
  br label %203

203:                                              ; preds = %202
  br label %204

204:                                              ; preds = %203, %175, %172, %163
  store i32 0, ptr %16, align 4
  br label %205

205:                                              ; preds = %199, %158, %109, %204
  call void @llvm.lifetime.end.p0(i64 8, ptr %15) #6
  %206 = load i32, ptr %16, align 4
  switch i32 %206, label %212 [
    i32 0, label %207
    i32 10, label %209
  ]

207:                                              ; preds = %205
  br label %208

208:                                              ; preds = %207, %84
  br label %209

209:                                              ; preds = %208, %205, %79, %51
  br label %210

210:                                              ; preds = %209, %23
  %211 = load i32, ptr %13, align 4, !tbaa !10
  store i32 %211, ptr %5, align 4
  store i32 1, ptr %16, align 4
  br label %212

212:                                              ; preds = %210, %205
  call void @llvm.lifetime.end.p0(i64 1, ptr %14) #6
  call void @llvm.lifetime.end.p0(i64 4, ptr %13) #6
  call void @llvm.lifetime.end.p0(i64 8, ptr %12) #6
  call void @llvm.lifetime.end.p0(i64 8, ptr %11) #6
  call void @llvm.lifetime.end.p0(i64 8, ptr %10) #6
  %213 = load i32, ptr %5, align 4
  ret i32 %213
}