; Function Attrs: nounwind uwtable
define range(i32 -1, 1) i32 @H5D__contig_check(ptr noundef %0, ptr noundef readonly captures(none) %1, ptr noundef %2, ptr noundef %3) local_unnamed_addr #0 {
  %5 = load i8, ptr @H5D_init_g, align 1, !tbaa !3, !range !7, !noundef !8
  %6 = trunc nuw i8 %5 to i1
  %7 = load i8, ptr @H5_libterm_g, align 1, !range !7
  %8 = trunc nuw i8 %7 to i1
  %9 = xor i1 %8, true
  %10 = select i1 %6, i1 true, i1 %9
  br i1 %10, label %11, label %47, !prof !9

11:                                               ; preds = %4
  %12 = tail call i64 @H5S_extent_nelem(ptr noundef %2) #9
  %13 = tail call i64 @H5T_get_size(ptr noundef %3) #9
  %14 = icmp eq i64 %13, 0
  br i1 %14, label %15, label %19

15:                                               ; preds = %11
  %16 = load i64, ptr @H5E_DATASET_g, align 8, !tbaa !48
  %17 = load i64, ptr @H5E_CANTGET_g, align 8, !tbaa !48
  %18 = tail call i32 (ptr, ptr, i32, i64, i64, ptr, ...) @H5E_printf_stack(ptr noundef nonnull @.str.1, ptr noundef nonnull @__func__.H5D__contig_check, i32 noundef 389, i64 noundef %16, i64 noundef %17, ptr noundef nonnull @.str.10) #9
  br label %47

19:                                               ; preds = %11
  %mul = tail call { i64, i1 } @llvm.umul.with.overflow.i64(i64 %13, i64 %12)
  %mul.val = extractvalue { i64, i1 } %mul, 0
  %mul.ov = extractvalue { i64, i1 } %mul, 1
  br i1 %mul.ov, label %20, label %24

20:                                               ; preds = %19
  %21 = load i64, ptr @H5E_DATASET_g, align 8, !tbaa !48
  %22 = load i64, ptr @H5E_OVERFLOW_g, align 8, !tbaa !48
  %23 = tail call i32 (ptr, ptr, i32, i64, i64, ptr, ...) @H5E_printf_stack(ptr noundef nonnull @.str.1, ptr noundef nonnull @__func__.H5D__contig_check, i32 noundef 396, i64 noundef %21, i64 noundef %22, ptr noundef nonnull @.str.11) #9
  br label %47

24:                                               ; preds = %19
  %25 = getelementptr inbounds nuw i8, ptr %1, i64 1920
  %26 = load i64, ptr %25, align 8, !tbaa !51
  %.not = icmp eq i64 %26, -1
  br i1 %.not, label %47, label %27

27:                                               ; preds = %24
  %28 = tail call i64 @H5F_get_eoa(ptr noundef %0, i32 noundef 3) #9
  %29 = icmp eq i64 %28, -1
  br i1 %29, label %30, label %34

30:                                               ; preds = %27
  %31 = load i64, ptr @H5E_DATASET_g, align 8, !tbaa !48
  %32 = load i64, ptr @H5E_CANTGET_g, align 8, !tbaa !48
  %33 = tail call i32 (ptr, ptr, i32, i64, i64, ptr, ...) @H5E_printf_stack(ptr noundef nonnull @.str.1, ptr noundef nonnull @__func__.H5D__contig_check, i32 noundef 403, i64 noundef %31, i64 noundef %32, ptr noundef nonnull @.str.12) #9
  br label %47

34:                                               ; preds = %27
  %35 = load i64, ptr %25, align 8, !tbaa !51
  %36 = add i64 %35, %mul.val
  %.not36 = icmp eq i64 %36, -1
  %.not37 = icmp eq i64 %35, -1
  %or.cond = or i1 %.not37, %.not36
  %.not38 = icmp ugt i64 %36, %35
  %or.cond40 = or i1 %.not38, %or.cond
  br i1 %or.cond40, label %41, label %37

37:                                               ; preds = %34
  %38 = load i64, ptr @H5E_DATASET_g, align 8, !tbaa !48
  %39 = load i64, ptr @H5E_OVERFLOW_g, align 8, !tbaa !48
  %40 = tail call i32 (ptr, ptr, i32, i64, i64, ptr, ...) @H5E_printf_stack(ptr noundef nonnull @.str.1, ptr noundef nonnull @__func__.H5D__contig_check, i32 noundef 409, i64 noundef %38, i64 noundef %39, ptr noundef nonnull @.str.13) #9
  br label %47

41:                                               ; preds = %34
  %.not39 = icmp ne i64 %36, -1
  %42 = icmp ugt i64 %36, %28
  %or.cond41 = and i1 %.not39, %42
  br i1 %or.cond41, label %43, label %47

43:                                               ; preds = %41
  %44 = load i64, ptr @H5E_DATASET_g, align 8, !tbaa !48
  %45 = load i64, ptr @H5E_OVERFLOW_g, align 8, !tbaa !48
  %46 = tail call i32 (ptr, ptr, i32, i64, i64, ptr, ...) @H5E_printf_stack(ptr noundef nonnull @.str.1, ptr noundef nonnull @__func__.H5D__contig_check, i32 noundef 411, i64 noundef %44, i64 noundef %45, ptr noundef nonnull @.str.13) #9
  br label %47

47:                                               ; preds = %30, %37, %43, %41, %4, %24, %20, %15
  %.029 = phi i32 [ -1, %15 ], [ -1, %20 ], [ 0, %24 ], [ 0, %4 ], [ -1, %30 ], [ -1, %37 ], [ -1, %43 ], [ 0, %41 ]
  ret i32 %.029
}